; Function Attrs: mustprogress nofree norecurse nosync nounwind willreturn memory(argmem: write) uwtable
define noundef i32 @cli_bcapi_extract_set_container(ptr nocapture noundef writeonly %0, i32 noundef %1) local_unnamed_addr #4 {
  %3 = icmp ugt i32 %1, 586
  br i1 %3, label %6, label %4

4:                                                ; preds = %2
  %5 = getelementptr inbounds i8, ptr %0, i64 1284
  store i32 %1, ptr %5, align 4
  br label %6

6:                                                ; preds = %2, %4
  %.0 = phi i32 [ 0, %4 ], [ -1, %2 ]
  ret i32 %.0
}